(lp0
(F-71.1166176
F42.3787457
tp1
a(F-71.113601
F42.374347
tp2
ag1
a(F-71.0536315
F42.3536667
tp3
a(F-71.122309
F42.396489
tp4
a(F-71.0870814
F42.3624726
tp5
a(F-71.0548864
F42.3560675
tp6
a(F-71.0899704
F42.3627774
tp7
a(F-71.1531601
F42.3380431
tp8
a(F-71.1577609
F42.3396967
tp9
a(F-71.11875
F42.33289
tp10
a(F-71.1190413
F42.38857
tp11
a(F-71.1157018
F42.3762961
tp12
a(F-71.0519235
F42.3616832
tp13
a(F-71.050812
F42.3588772
tp14
ag10
a(F-71.0900016
F42.4036563
tp15
a(F-71.1503264
F42.3719855
tp16
a(F-71.0574286
F42.3483277
tp17
a(F-71.11619689999999
F42.36429686666667
tp18
ag2
a(F-71.1040301
F42.3655057
tp19
a(F-71.0975185
F42.3389334
tp20
a(F-71.0995872
F42.3431036
tp21
a(F-71.052556
F42.373027
tp22
a(F-71.109725
F42.372772
tp23
a(F-71.114091
F42.376624
tp24
a(F-71.0827505
F42.3508567
tp25
ag8
a(F-71.126735
F42.376491
tp26
a(F-71.1108239
F42.3731946
tp27
a(F-71.1188188
F42.3736595
tp28
a(F-71.0698547
F42.3561048
tp29
a(F-71.112777
F42.373969
tp30
a(F-71.0899921
F42.3626102
tp31
a(F-71.0627092
F42.357983
tp32
a(F-71.079266
F42.336538
tp33
a(F-71.0948847
F42.3601506
tp34
a(F-71.1187336
F42.3744219
tp35
a(F-71.0975716
F42.3619213
tp36
a(F-71.0955674
F42.3796317
tp37
a(F-71.05432095
F42.3658086
tp38
a(F-71.1141155
F42.3803096
tp39
a.