(lp0
S'Peabody Museum'
p1
aS'Harvard Art Museums'
p2
aS'Harvard Museum of Natural History '
p3
aS'Dewey Square Parks'
p4
aS'Davis Square'
p5
aS'Cambridge Center Roof Garden'
p6
aS'Norman B. Leventhal Park'
p7
aS'Kendall Square'
p8
aS'Charles River'
p9
aS'Chestnut Hill Reservoir'
p10
aS'Emerald Necklace '
p11
aS'Porter Square'
p12
aS'Harvard University '
p13
aS'Christopher Columbus Waterfront Park '
p14
aS'New England Aquarium '
p15
aS'Jamaica Pond'
p16
aS'Mystic River Reservation'
p17
aS'Mt. Auburn Cemetery '
p18
aS'Rose Fitzgerald Kennedy Greenway Conservancy '
p19
aS'Memorial Drive'
p20
aS'Arthur M. Sackler Museum'
p21
aS'Central Square'
p22
aS'Isabella Stewart Gardner Museum '
p23
aS'The Fens'
p24
aS'Charlestown Navy Yard '
p25
aS'Cambridge Multicultural Arts Center'
p26
aS'Harvard University Semitic Museum'
p27
aS'Commonwealth Avenue Mall'
p28
aS'Charles River Esplanade '
p29
aS"Longfellow House Washington's Headquarters National Historic Site"
p30
aS'Cambridge Public Library'
p31
aS'Harvard Square'
p32
aS'Boston Public Garden '
p33
aS'Sanders Theatre'
p34
aS'Stata Center'
p35
aS'Boston African American National Historic Site'
p36
aS'Franklin Park Zoo'
p37
aS'Massachusetts Institute of Technology (MIT)'
p38
aS'John Harvard Statue'
p39
aS'MIT Museum'
p40
aS'Union Square'
p41
aS'Paul Revere Mall'
p42
aS'Harvard University Herbaria'
p43
a.