(lp0
(F-71.070693
F42.351907749999995
tp1
a(F-71.050379
F42.339221
tp2
a(F-71.0707614
F42.3594724
tp3
a(F-71.059657
F42.3594769
tp4
ag4
ag4
ag4
ag4
a(F-71.0589201
F42.3557465
tp5
a(F-71.0868371
F42.3454541
tp6
a(F-71.1065493
F42.3501181
tp7
ag4
a(F-71.1531601
F42.3380431
tp8
a(F-71.0630855
F42.3747179
tp9
ag4
ag4
ag4
ag4
ag4
ag4
a(F-71.0567087
F42.3603868
tp10
a(F-71.0484587
F42.350362
tp11
ag4
a(F-71.1661394
F42.3400917
tp12
a(F-71.0687874
F42.3579771
tp13
a(F-71.0593554
F42.3583384
tp14
ag4
a(F-71.0972441
F42.3389151
tp15
ag4
ag4
a(F-71.0603114
F42.3738859
tp16
ag4
a(F-71.0536315
F42.3536667
tp17
a(F-71.0571355
F42.358845
tp18
a(F-71.122309
F42.396489
tp19
ag4
ag4
a(F-71.0646868
F42.3748052
tp20
a(F-71.0551628
F42.3744287
tp21
a(F-71.0548864
F42.3560675
tp22
a(F-71.0899704
F42.3627774
tp23
a(F-71.0952525
F42.3504067
tp24
a(F-71.1577609
F42.3396967
tp25
a(F-71.0743702
F42.3489523
tp26
a(F-71.132466
F42.377523
tp27
a(F-71.11875
F42.33289
tp28
a(F-71.0498425
F42.3512436
tp29
a(F-71.0583373
F42.3574198
tp30
a(F-71.0734556
F42.3520511
tp31
ag4
ag28
a(F-71.1194209
F42.3887541
tp32
ag4
a(F-71.0632705
F42.3642203
tp33
ag4
ag4
a(F-71.1429023
F42.3438986
tp34
a(F-71.0587646
F42.3569825
tp35
ag28
a(F-71.0676147
F42.3565931
tp36
a(F-71.0770365
F42.336457
tp37
ag4
a(F-71.0536346
F42.3636312
tp38
ag4
a(F-71.0662842
F42.3583066
tp39
ag4
ag28
a(F-71.0556503
F42.3595266
tp40
ag20
a(F-71.065792
F42.357001
tp41
ag4
a(F-71.1157018
F42.3762961
tp42
ag4
a(F-71.0692101
F42.3691347
tp43
a(F-71.0519235
F42.3616832
tp44
ag4
ag4
a(F-71.0527954
F42.3609306
tp45
a(F-71.0903701
F42.3465733
tp46
a(F-71.050812
F42.3588772
tp47
ag4
ag4
ag4
a(F-71.0748097
F42.3548114
tp48
a(F-71.0522752
F42.3523747
tp49
ag18
ag2
a(F-71.0724231
F42.36871
tp50
a(F-71.0624537
F42.3697806
tp51
ag4
a(F-71.0763034
F42.339033
tp52
a(F-71.050935
F42.359782
tp53
ag7
ag4
ag31
ag28
ag4
ag4
a(F-71.0574286
F42.3483277
tp54
ag4
a(F-71.0691058
F42.3571656
tp55
a(F-71.0998736
F42.3398023
tp56
a(F-71.107283
F42.338917
tp57
ag28
a(F-71.11619689999999
F42.36429686666667
tp58
ag4
a(F-71.0579406
F42.35674325
tp59
ag28
a(F-71.0647265
F42.3517054
tp60
ag4
a(F-71.0975185
F42.3389334
tp61
ag4
ag4
ag6
a(F-71.0650388
F42.3593467
tp62
ag4
a(F-71.0995872
F42.3431036
tp63
a(F-71.052556
F42.373027
tp64
a(F-71.0773118
F42.3491498
tp65
ag4
ag4
a(F-71.0439806
F42.3509888
tp66
ag4
a(F-71.114091
F42.376624
tp67
a(F-71.0827505
F42.3508567
tp68
a(F-71.0846919
F42.3538205
tp69
ag4
a(F-71.0468467
F42.3475374
tp70
ag4
ag4
ag4
ag65
ag4
ag4
ag4
a(F-71.0625065
F42.3729061
tp71
ag4
ag4
ag4
ag4
a(F-71.069617
F42.340412
tp72
a(F-71.0447299
F42.3533341
tp73
ag4
ag4
ag4
a(F-71.066906
F42.360332
tp74
a(F-71.0716756
F42.3538458
tp75
ag28
a(F-71.0560777
F42.4191877
tp76
a(F-71.115181
F42.370753
tp77
ag4
a(F-71.139563
F42.342248
tp78
ag4
ag4
a(F-71.0837322
F42.3483618
tp79
ag4
a(F-71.0843362
F42.3451018
tp80
ag4
a(F-71.053461
F42.364779
tp81
ag4
a(F-71.0899921
F42.3626102
tp82
ag4
a(F-71.0627092
F42.357983
tp83
ag4
a(F-71.0873309
F42.3420274
tp84
a(F-71.0625901
F42.3523807
tp85
a(F-71.079266
F42.336538
tp86
ag4
ag4
ag4
ag86
ag4
a(F-71.092478
F42.338841
tp87
ag4
a(F-71.055216
F42.367476
tp88
ag4
a(F-71.0930839
F42.3581911
tp89
a(F-71.05708
F42.361284
tp90
a(F-71.1187336
F42.3744219
tp91
a(F-71.0499287
F42.3395984
tp92
a(F-71.0645576
F42.3611478
tp93
a(F-71.0975716
F42.3619213
tp94
ag4
ag4
a(F-71.1067037
F42.3460365
tp95
ag4
a(F-71.136804
F42.353441
tp96
a(F-71.05432095
F42.3658086
tp97
a(F-71.063361
F42.355143
tp98
a(F-71.1141155
F42.3803096
tp99
ag4
ag4
ag83
ag57
ag4
a.