(lp0
(F-71.071305
F42.3520159
tp1
a(F-71.0475482
F42.3261384
tp2
a(F-71.0707853
F42.3597
tp3
a(F-71.0588801
F42.3600825
tp4
a(F-71.0588801
F42.3600825
tp5
a(F-71.0588801
F42.3600825
tp6
a(F-71.0588801
F42.3600825
tp7
a(F-71.0588801
F42.3600825
tp8
a(F-71.0594338
F42.3554958
tp9
a(F-71.0861268
F42.34508870000001
tp10
a(F-71.1056291
F42.350324
tp11
a(F-71.0588801
F42.3600825
tp12
a(F-71.15554019999999
F42.3317391
tp13
a(F-71.0631291
F42.3748166
tp14
a(F-71.0588801
F42.3600825
tp15
a(F-71.0588801
F42.3600825
tp16
a(F-71.0588801
F42.3600825
tp17
a(F-71.0588801
F42.3600825
tp18
a(F-71.0588801
F42.3600825
tp19
a(F-71.0588801
F42.3600825
tp20
a(F-71.05635120000001
F42.3600208
tp21
a(F-71.0487354
F42.3508343
tp22
a(F-71.0588801
F42.3600825
tp23
a(F-71.1695888
F42.3352478
tp24
a(F-71.0688077
F42.3579994
tp25
a(F-71.0593299
F42.3580912
tp26
a(F-71.0588801
F42.3600825
tp27
a(F-71.09551200000001
F42.337711
tp28
a(F-71.0588801
F42.3600825
tp29
a(F-71.0588801
F42.3600825
tp30
a(F-71.0588801
F42.3600825
tp31
a(F-71.06004089999999
F42.3740141
tp32
a(F-71.0588801
F42.3600825
tp33
a(F-71.05469819999999
F42.3534245
tp34
a(F-71.05745399999999
F42.3587352
tp35
a(F-71.1223151
F42.3967172
tp36
a(F-71.0588801
F42.3600825
tp37
a(F-71.0588801
F42.3600825
tp38
a(F-71.0646337
F42.37479159999999
tp39
a(F-71.0554239
F42.3739796
tp40
a(F-71.0555339
F42.3561656
tp41
a(F-71.0900971
F42.3628741
tp42
a(F-71.0958314
F42.35279870000001
tp43
a(F-71.1582197
F42.3348962
tp44
a(F-71.07512489999999
F42.3492166
tp45
a(F-71.13206819999999
F42.3775209
tp46
a(F-71.1169683
F42.3225351
tp47
a(F-71.0500753
F42.3516422
tp48
a(F-71.0585981
F42.3573573
tp49
a(F-71.0724117
F42.3525463
tp50
a(F-71.0588801
F42.3600825
tp51
a(F-71.0959065
F42.3031796
tp52
a(F-71.11939819999999
F42.3888566
tp53
a(F-71.0588801
F42.3600825
tp54
a(F-71.0639788
F42.3644713
tp55
a(F-71.0588801
F42.3600825
tp56
a(F-71.0588801
F42.3600825
tp57
a(F-71.142853
F42.343864
tp58
a(F-71.0620206
F42.3568515
tp59
a(F-71.05837129999999
F42.35699109999999
tp60
a(F-71.12525699999999
F42.2987979
tp61
a(F-71.0681942
F42.3566009
tp62
a(F-71.0718832
F42.3233007
tp63
a(F-71.0588801
F42.3600825
tp64
a(F-71.0536815
F42.3637346
tp65
a(F-71.0588801
F42.3600825
tp66
a(F-71.06589799999999
F42.3584998
tp67
a(F-71.0588801
F42.3600825
tp68
a(F-71.10119060000001
F42.2881143
tp69
a(F-71.0556368
F42.3601293
tp70
a(F-71.0646337
F42.37479159999999
tp71
a(F-71.0656551
F42.35618729999999
tp72
a(F-71.0588801
F42.3600825
tp73
a(F-71.11666009999999
F42.3770029
tp74
a(F-71.0588801
F42.3600825
tp75
a(F-71.0694621
F42.3687884
tp76
a(F-71.0516339
F42.3609921
tp77
a(F-71.0588801
F42.3600825
tp78
a(F-71.0588801
F42.3600825
tp79
a(F-71.0532125
F42.3608908
tp80
a(F-71.0900008
F42.3464606
tp81
a(F-71.0495815
F42.3591315
tp82
a(F-71.0588801
F42.3600825
tp83
a(F-71.0588801
F42.3600825
tp84
a(F-71.0588801
F42.3600825
tp85
a(F-71.0740929
F42.3547345
tp86
a(F-71.0512756
F42.3521762
tp87
a(F-71.05729560000002
F42.3587651
tp88
a(F-71.0508313
F42.2795065
tp89
a(F-71.0712655
F42.3675426
tp90
a(F-71.0631492
F42.3687307
tp91
a(F-71.0588801
F42.3600825
tp92
a(F-71.0765188
F42.3388111
tp93
a(F-71.050247
F42.360018
tp94
a(F-71.1053991
F42.3504997
tp95
a(F-71.0588801
F42.3600825
tp96
a(F-71.07410039999999
F42.3521411
tp97
a(F-71.12034229999999
F42.3171611
tp98
a(F-71.0588801
F42.3600825
tp99
a(F-71.0588801
F42.3600825
tp100
a(F-71.0577295
F42.3488222
tp101
a(F-71.0588801
F42.3600825
tp102
a(F-71.0588801
F42.3600825
tp103
a(F-71.0692921
F42.3575165
tp104
a(F-71.1014952
F42.3378976
tp105
a(F-71.10379499999999
F42.3352
tp106
a(F-71.1151431
F42.3097365
tp107
a(F-71.11607359999999
F42.3641526
tp108
a(F-71.0588801
F42.3600825
tp109
a(F-71.0579441
F42.35652109999999
tp110
a(F-71.1047446
F42.2948841
tp111
a(F-71.0657174
F42.3520869
tp112
a(F-71.0588801
F42.3600825
tp113
a(F-71.0990154
F42.338245
tp114
a(F-71.0588801
F42.3600825
tp115
a(F-71.0588801
F42.3600825
tp116
a(F-71.0860162
F42.3451125
tp117
a(F-71.06520119999999
F42.3599645
tp118
a(F-71.0588801
F42.3600825
tp119
a(F-71.1002881
F42.3428653
tp120
a(F-71.0531491
F42.3727175
tp121
a(F-71.07788260000001
F42.3494492
tp122
a(F-71.0588801
F42.3600825
tp123
a(F-71.0588801
F42.3600825
tp124
a(F-71.04079999999999
F42.3489
tp125
a(F-71.0588801
F42.3600825
tp126
a(F-71.11392479999999
F42.3780714
tp127
a(F-71.08292550000002
F42.3506717
tp128
a(F-71.08460769999999
F42.3538863
tp129
a(F-71.0588801
F42.3600825
tp130
a(F-71.0410902
F42.3449211
tp131
a(F-71.0588801
F42.3600825
tp132
a(F-71.0588801
F42.3600825
tp133
a(F-71.0588801
F42.3600825
tp134
a(F-71.0779522
F42.3494161
tp135
a(F-71.0588801
F42.3600825
tp136
a(F-71.0588801
F42.3600825
tp137
a(F-71.0588801
F42.3600825
tp138
a(F-71.0625941
F42.3729579
tp139
a(F-71.0588801
F42.3600825
tp140
a(F-71.0588801
F42.3600825
tp141
a(F-71.0588801
F42.3600825
tp142
a(F-71.0588801
F42.3600825
tp143
a(F-71.0695744
F42.340711
tp144
a(F-71.0429327
F42.35286989999999
tp145
a(F-71.0588801
F42.3600825
tp146
a(F-71.0588801
F42.3600825
tp147
a(F-71.0588801
F42.3600825
tp148
a(F-71.0671701
F42.3601325
tp149
a(F-71.0704078
F42.3541614
tp150
a(F-71.1134469
F42.3048254
tp151
a(F-71.0569155
F42.4202923
tp152
a(F-71.11500389999999
F42.3711738
tp153
a(F-71.0588801
F42.3600825
tp154
a(F-71.1394116
F42.3427714
tp155
a(F-71.0588801
F42.3600825
tp156
a(F-71.0588801
F42.3600825
tp157
a(F-71.0832265
F42.348505
tp158
a(F-71.0588801
F42.3600825
tp159
a(F-71.0851459
F42.34439330000001
tp160
a(F-71.0588801
F42.3600825
tp161
a(F-71.05405100000002
F42.365023
tp162
a(F-71.0588801
F42.3600825
tp163
a(F-71.09063549999999
F42.3616095
tp164
a(F-71.0588801
F42.3600825
tp165
a(F-71.0624327
F42.3579212
tp166
a(F-71.0588801
F42.3600825
tp167
a(F-71.08816
F42.34181239999999
tp168
a(F-71.062752
F42.352547
tp169
a(F-71.0868101
F42.302786
tp170
a(F-71.0588801
F42.3600825
tp171
a(F-71.0588801
F42.3600825
tp172
a(F-71.0588801
F42.3600825
tp173
a(F-71.0828135
F42.3243923
tp174
a(F-71.0588801
F42.3600825
tp175
a(F-71.0912767
F42.33758599999999
tp176
a(F-71.0588801
F42.3600825
tp177
a(F-71.05575759999999
F42.3671648
tp178
a(F-71.0588801
F42.3600825
tp179
a(F-71.0934
F42.3591
tp180
a(F-71.0572517
F42.36124710000001
tp181
a(F-71.11720559999999
F42.3744752
tp182
a(F-71.0475773
F42.3381437
tp183
a(F-71.064548
F42.361481
tp184
a(F-71.097537
F42.3622532
tp185
a(F-71.0588801
F42.3600825
tp186
a(F-71.0588801
F42.3600825
tp187
a(F-71.1068416
F42.3460016
tp188
a(F-71.0588801
F42.3600825
tp189
a(F-71.13663559999999
F42.3536958
tp190
a(F-71.05361909999999
F42.3658065
tp191
a(F-71.0656252
F42.3550493
tp192
a(F-71.1142169
F42.3791642
tp193
a(F-71.0588801
F42.3600825
tp194
a(F-71.0588801
F42.3600825
tp195
a(F-71.0620125
F42.3579242
tp196
a(F-71.1027364
F42.32809899999999
tp197
a(F-71.0588801
F42.3600825
tp198
a.