(lp0
S'Arlington Street Church, Boston, MA'
p1
aS'Carson Beach, Boston, MA'
p2
aS'Charles Street, Boston, MA'
p3
aS'Axelle Fine Arts Galerie, Boston, MA'
p4
aS'Peabody Museum, Boston, MA'
p5
aS'Ether Dome at Mass General Hospital, Boston, MA'
p6
aS'Out Of Town News, Boston, MA'
p7
aS'Harvard Art Museums, Boston, MA'
p8
aS'Downtown Crossing, Boston, MA'
p9
aS'The Mapparium , Boston, MA'
p10
aS'Boston University Observatory, Boston, MA'
p11
aS'Phoenix Landing, Boston, MA'
p12
aS'Metropolitan Waterworks Museum, Boston, MA'
p13
aS'City Tours (1), Boston, MA'
p14
aS'Bernard Toale Gallery, Boston, MA'
p15
aS'Lord Hobo, Boston, MA'
p16
aS'Vose Galleries of Boston, Boston, MA'
p17
aS'Specialty & Gift Shops (18), Boston, MA'
p18
aS'Crump McCole Seaport Art Gallery, Boston, MA'
p19
aS'The Alchemist, Boston, MA'
p20
aS'Ancient and Honorable Artillery Company Museum, Boston, MA'
p21
aS'Boston Fire Museum, Boston, MA'
p22
aS'Harvard Museum of Natural History , Boston, MA'
p23
aS'Commonwealth Museum, Boston, MA'
p24
aS'Louisburg Square, Boston, MA'
p25
aS'Old City Hall , Boston, MA'
p26
aS'Jeannette Neill Dance Studio, Boston, MA'
p27
aS'Museum of Fine Arts , Boston, MA'
p28
aS'The Donkey Show, Boston, MA'
p29
aS'Society of Arts and Crafts Gallery, Boston, MA'
p30
aS'Cambridge Common, Boston, MA'
p31
aS'Kayaking & Canoeing (1), Boston, MA'
p32
aS'Dewey Square Parks, Boston, MA'
p33
aS'Old State House , Boston, MA'
p34
aS'Davis Square, Boston, MA'
p35
aS'Cambridge Center Roof Garden, Boston, MA'
p36
aS'Historical & Heritage Tours (4), Boston, MA'
p37
aS"Breed's Hill, Boston, MA"
p38
aS'USS Constitution Museum , Boston, MA'
p39
aS'Norman B. Leventhal Park, Boston, MA'
p40
aS'Kendall Square, Boston, MA'
p41
aS'Charles River, Boston, MA'
p42
aS'Chestnut Hill Reservoir, Boston, MA'
p43
aS'John Hancock Tower, Boston, MA'
p44
aS'Brattle Square, Boston, MA'
p45
aS'Emerald Necklace , Boston, MA'
p46
aS"Boston Children's Museum , Boston, MA"
p47
aS'Boston Irish Famine Memorial, Boston, MA'
p48
aS'Emmanuel Church, Boston, MA'
p49
aS'The SOWA Artists Guild , Boston, MA'
p50
aS'Franklin Park, Boston, MA'
p51
aS'Porter Square, Boston, MA'
p52
aS'Harriet Tubman House, Boston, MA'
p53
aS'The West End Museum, Boston, MA'
p54
aS'John F. Kennedy Presidential Museum & Library, Boston, MA'
p55
aS'Aeronaut Brewing Co., Boston, MA'
p56
aS'Washington Street, Boston, MA'
p57
aS'Old South Meeting House , Boston, MA'
p58
aS'Arnold Arboretum, Boston, MA'
p59
aS'William Hickling Prescott House, Boston, MA'
p60
aS'Shirley-Eustis House, Boston, MA'
p61
aS'Panopticon Gallery, Boston, MA'
p62
aS'The Paul Revere House , Boston, MA'
p63
aS'Statue of Benjamin Franklin, Boston, MA'
p64
aS'Nichols House Museum, Boston, MA'
p65
aS'A.R.T. - American Repertory Theater, Boston, MA'
p66
aS'Boston Nature Center, Boston, MA'
p67
aS'Quincy Market, Boston, MA'
p68
aS'Bunker Hill , Boston, MA'
p69
aS'Frog Pond, Boston, MA'
p70
aS'Statue of Paul Revere, Boston, MA'
p71
aS'Harvard University , Boston, MA'
p72
aS'Bantam Cidery, Boston, MA'
p73
aS'North Point Park, Boston, MA'
p74
aS'Christopher Columbus Waterfront Park , Boston, MA'
p75
aS'Cambridge Antique Market, Boston, MA'
p76
aS"Artisan's Asylum, Boston, MA"
p77
aS'Armenian Heritage Park, Boston, MA'
p78
aS'Massachusetts Historical Society, Boston, MA'
p79
aS'New England Aquarium , Boston, MA'
p80
aS'Entrepreneur Walk of Fame, Boston, MA'
p81
aS'Spas (4), Boston, MA'
p82
aS'Citi Performing Arts Center, Boston, MA'
p83
aS'Gibson House Museum, Boston, MA'
p84
aS'Boston Tea Party Ships & Museum , Boston, MA'
p85
aS'Site of the Boston Massacre , Boston, MA'
p86
aS'Top of the Hub, Boston, MA'
p87
aS'Museum of Science , Boston, MA'
p88
aS'Leonard P. Zakim Bunker Hill Bridge, Boston, MA'
p89
aS'Charles River Bike Path, Boston, MA'
p90
aS'South End, Boston, MA'
p91
aS'Long Wharf, Boston, Boston, MA'
p92
aS'The Castle at Boston University, Boston, MA'
p93
aS'Stoneman Playground, Boston, MA'
p94
aS'Church of the Covenant, Boston, MA'
p95
aS'Jamaica Pond, Boston, MA'
p96
aS'Mystic River Reservation, Boston, MA'
p97
aS'Mt. Auburn Cemetery , Boston, MA'
p98
aS'Rose Fitzgerald Kennedy Greenway Conservancy , Boston, MA'
p99
aS'Edward M. Kennedy Institute for the United States Senate, Boston, MA'
p100
aS'Acorn Street, Boston, MA'
p101
aS'Boston Latin School, Boston, MA'
p102
aS'Warren Anatomical Museum, Boston, MA'
p103
aS'Jamaica Plain, Boston, MA'
p104
aS'Memorial Drive, Boston, MA'
p105
aS"Marriott's Custom House, Boston, MA"
p106
aS'Walking Tours (2), Boston, MA'
p107
aS'Forest Hills Cemetery, Boston, MA'
p108
aS'Emerson College, Boston, MA'
p109
aS'Arthur M. Sackler Museum, Boston, MA'
p110
aS'Isabella Stewart Gardner Museum , Boston, MA'
p111
aS'Sports Museum of New England, Boston, MA'
p112
aS"People's Republik, Boston, MA"
p113
aS'Mary Baker Eddy Library, Boston, MA'
p114
aS'Museum of African American History, Boston, MA'
p115
aS'Wheeler Park, Boston, MA'
p116
aS'The Fens, Boston, MA'
p117
aS'Charlestown Navy Yard , Boston, MA'
p118
aS'Boston Public Library, Boston, MA'
p119
aS'Cambridge Multicultural Arts Center, Boston, MA'
p120
aS'Alpha Gallery, Boston, MA'
p121
aS'Fan Pier , Boston, MA'
p122
aS'Cantab Lounge, Boston, MA'
p123
aS'Harvard University Semitic Museum, Boston, MA'
p124
aS'Commonwealth Avenue Mall, Boston, MA'
p125
aS'Charles River Esplanade , Boston, MA'
p126
aS'Massage Institute of New England, Boston, MA'
p127
aS'Inman Square, Boston, MA'
p128
aS'Yoga & Pilates (1), Boston, MA'
p129
aS"Atwood's Tavern, Boston, MA"
p130
aS"Longfellow House Washington's Headquarters National Historic Site, Boston, MA"
p131
aS'Cambridge Public Library, Boston, MA'
p132
aS'Asgard Irish Pub & Restaurant, Boston, MA'
p133
aS'Museum of Bad Art, Boston, MA'
p134
aS'Boat Tours (1), Boston, MA'
p135
aS'Harvard Square, Boston, MA'
p136
aS'Parish of Saint Paul, Boston, MA'
p137
aS"St. Stephen's Roman Catholic Church, Boston, MA"
p138
aS'Fresh Pond Reservation, Boston, MA'
p139
aS'Robert Klein Gallery, Boston, MA'
p140
aS'Cathedral of the Holy Cross, Boston, MA'
p141
aS'The Institute of Contemporary Art , Boston, MA'
p142
aS'Theater & Performances (7), Boston, MA'
p143
aS'Jose Mateo Ballet Theatre, Boston, MA'
p144
aS'Galleries at Thayer, Boston, MA'
p145
aS'The Vilna Shul, Boston, MA'
p146
aS'Boston Public Garden , Boston, MA'
p147
aS'Meadhall, Boston, MA'
p148
aS'Winthrop Park, Boston, MA'
p149
aS'Oberon, Boston, MA'
p150
aS'St. John the Evangelist Monastery Chapel, Boston, MA'
p151
aS'American Academy of Arts and Sciences, Boston, MA'
p152
aS'Dorchester Heights National Historic Site, Boston, MA'
p153
aS'CambridgeSide Galleria Mall, Boston, MA'
p154
aS'Boylston Street , Boston, MA'
p155
aS'Sanders Theatre, Boston, MA'
p156
aS'The First Church of Christ, Scientist, Boston, MA'
p157
aS'Lizard Lounge, Boston, MA'
p158
aS'Saint Leonard of Port Maurice, Boston, MA'
p159
aS'Grand Circle Gallery, Boston, MA'
p160
aS'Stata Center, Boston, MA'
p161
aS'Little Brewster Island and Lighthouse, Boston, MA'
p162
aS'Boston African American National Historic Site, Boston, MA'
p163
aS'Boston Common Carousel, Boston, MA'
p164
aS'Boston Light, Boston, MA'
p165
aS'Chinatown, Boston, MA'
p166
aS'Franklin Park Zoo, Boston, MA'
p167
aS'Berklee College of Music , Boston, MA'
p168
aS'John F. Kennedy Park, Boston, MA'
p169
aS'Schlesinger Library, Boston, MA'
p170
aS'Fort Warren, Boston, MA'
p171
aS"Charlie's Kitchen, Boston, MA"
p172
aS'African Meeting House, Boston, MA'
p173
aS'Paul S. Russell, MD Museum of Medical History and Innovation at Massachusetts General Hospital, Boston, MA'
p174
aS"Copp's Hill Burying Ground, Boston, MA"
p175
aS'Shiso Kitchen, Boston, MA'
p176
aS'Massachusetts Institute of Technology (MIT), Boston, MA'
p177
aS'New England Holocaust Memorial , Boston, MA'
p178
aS'John Harvard Statue, Boston, MA'
p179
aS'South Boston, Boston, MA'
p180
aS'Harrison Gray Otis House, Boston, MA'
p181
aS'MIT Museum, Boston, MA'
p182
aS'Museum of the National Center of Afro American Artists, Boston, MA'
p183
aS'Nielsen Gallery, Boston, MA'
p184
aS'Beacon Street, Boston, MA'
p185
aS'Salada Tea Doors, Boston, MA'
p186
aS'Union Square, Boston, MA'
p187
aS'Paul Revere Mall, Boston, MA'
p188
aS'Boston Common , Boston, MA'
p189
aS'Harvard University Herbaria, Boston, MA'
p190
aS'Movie Theaters (3), Boston, MA'
p191
aS'Irish Heritage Trail, Boston, MA'
p192
aS'Boston Athenaeum, Boston, MA'
p193
aS'Esplanade Playspace, Boston, MA'
p194
aS'Boston Beer Museum, Boston, MA'
p195
a.