(lp0
S'Arlington Street Church'
p1
aS'Boston Design Center'
p2
aS'Carson Beach'
p3
aS'Charles Street'
p4
aS'Axelle Fine Arts Galerie'
p5
aS'Peabody Museum'
p6
aS'Ether Dome at Mass General Hospital'
p7
aS'Out Of Town News'
p8
aS'Harvard Art Museums'
p9
aS'Downtown Crossing'
p10
aS'The Mapparium '
p11
aS'Boston University Observatory'
p12
aS'Phoenix Landing'
p13
aS'Metropolitan Waterworks Museum'
p14
aS'City Tours (1)'
p15
aS'Bernard Toale Gallery'
p16
aS'Lord Hobo'
p17
aS'Vose Galleries of Boston'
p18
aS'Specialty & Gift Shops (18)'
p19
aS'Crump McCole Seaport Art Gallery'
p20
aS'The Alchemist'
p21
aS'Ancient and Honorable Artillery Company Museum'
p22
aS'Boston Fire Museum'
p23
aS'Harvard Museum of Natural History '
p24
aS'Commonwealth Museum'
p25
aS'Louisburg Square'
p26
aS'Old City Hall '
p27
aS'Jeannette Neill Dance Studio'
p28
aS'Museum of Fine Arts '
p29
aS'Wine Tours & Tastings (1)'
p30
aS'The Donkey Show'
p31
aS'Society of Arts and Crafts Gallery'
p32
aS'Cambridge Common'
p33
aS'Kayaking & Canoeing (1)'
p34
aS'Dewey Square Parks'
p35
aS'Old State House '
p36
aS'Davis Square'
p37
aS'Cambridge Center Roof Garden'
p38
aS'Historical & Heritage Tours (4)'
p39
aS"Breed's Hill"
p40
aS'USS Constitution Museum '
p41
aS'Norman B. Leventhal Park'
p42
aS'Kendall Square'
p43
aS'Charles River'
p44
aS'Chestnut Hill Reservoir'
p45
aS'John Hancock Tower'
p46
aS'Brattle Square'
p47
aS'Thompson Island'
p48
aS'Emerald Necklace '
p49
aS"Boston Children's Museum "
p50
aS'Boston Irish Famine Memorial'
p51
aS'Emmanuel Church'
p52
aS'The SOWA Artists Guild '
p53
aS'Franklin Park'
p54
aS'Porter Square'
p55
aS'Harriet Tubman House'
p56
aS'The West End Museum'
p57
aS'John F. Kennedy Presidential Museum & Library'
p58
aS'Aeronaut Brewing Co.'
p59
aS'Washington Street'
p60
aS'Park Street Church'
p61
aS'Old South Meeting House '
p62
aS'Arnold Arboretum'
p63
aS'William Hickling Prescott House'
p64
aS'Shirley-Eustis House'
p65
aS'Panopticon Gallery'
p66
aS'Gallops Island'
p67
aS'The Paul Revere House '
p68
aS'Statue of Benjamin Franklin'
p69
aS'Nichols House Museum'
p70
aS'A.R.T. - American Repertory Theater'
p71
aS'Boston Nature Center'
p72
aS'Quincy Market'
p73
aS'Bunker Hill '
p74
aS'Frog Pond'
p75
aS'Statue of Paul Revere'
p76
aS'Harvard University '
p77
aS'Bantam Cidery'
p78
aS'North Point Park'
p79
aS'Christopher Columbus Waterfront Park '
p80
aS'Cambridge Antique Market'
p81
aS"Artisan's Asylum"
p82
aS'Armenian Heritage Park'
p83
aS'Massachusetts Historical Society'
p84
aS'New England Aquarium '
p85
aS'Entrepreneur Walk of Fame'
p86
aS'Spas (4)'
p87
aS'Citi Performing Arts Center'
p88
aS'Gibson House Museum'
p89
aS'Boston Tea Party Ships & Museum '
p90
aS'Site of the Boston Massacre '
p91
aS'Castle Island'
p92
aS'Top of the Hub'
p93
aS'Museum of Science '
p94
aS'Leonard P. Zakim Bunker Hill Bridge'
p95
aS'Charles River Bike Path'
p96
aS'South End'
p97
aS'Long Wharf, Boston'
p98
aS'The Castle at Boston University'
p99
aS'Belle Isle Marsh Reservation'
p100
aS'Stoneman Playground'
p101
aS'Church of the Covenant'
p102
aS'Jamaica Pond'
p103
aS"Lovell's Island"
p104
aS'Mystic River Reservation'
p105
aS'Mt. Auburn Cemetery '
p106
aS'Rose Fitzgerald Kennedy Greenway Conservancy '
p107
aS"Paddy's"
p108
aS'Edward M. Kennedy Institute for the United States Senate'
p109
aS'Acorn Street'
p110
aS'Boston Latin School'
p111
aS'Warren Anatomical Museum'
p112
aS'Jamaica Plain'
p113
aS'Memorial Drive'
p114
aS"Marriott's Custom House"
p115
aS'Walking Tours (2)'
p116
aS'Forest Hills Cemetery'
p117
aS'Emerson College'
p118
aS'Spectacle Island'
p119
aS'Arthur M. Sackler Museum'
p120
aS'Central Square'
p121
aS'Constitution Beach'
p122
aS'Isabella Stewart Gardner Museum '
p123
aS'Sports Museum of New England'
p124
aS"People's Republik"
p125
aS'Mary Baker Eddy Library'
p126
aS'Museum of African American History'
p127
aS'Wheeler Park'
p128
aS'The Fens'
p129
aS'Charlestown Navy Yard '
p130
aS'Boston Public Library'
p131
aS'Cambridge Multicultural Arts Center'
p132
aS'Alpha Gallery'
p133
aS'Fan Pier '
p134
aS'Cantab Lounge'
p135
aS'Harvard University Semitic Museum'
p136
aS'Commonwealth Avenue Mall'
p137
aS'Charles River Esplanade '
p138
aS'Massage Institute of New England'
p139
aS'Inman Square'
p140
aS'Yoga & Pilates (1)'
p141
aS"Atwood's Tavern"
p142
aS"Longfellow House Washington's Headquarters National Historic Site"
p143
aS'Cambridge Public Library'
p144
aS'Asgard Irish Pub & Restaurant'
p145
aS'Museum of Bad Art'
p146
aS'Boat Tours (1)'
p147
aS'Harvard Square'
p148
aS'Parish of Saint Paul'
p149
aS"St. Stephen's Roman Catholic Church"
p150
aS'Fresh Pond Reservation'
p151
aS'Robert Klein Gallery'
p152
aS'Cathedral of the Holy Cross'
p153
aS'The Institute of Contemporary Art '
p154
aS'Theater & Performances (7)'
p155
aS"George's Island "
p156
aS'Jose Mateo Ballet Theatre'
p157
aS'Galleries at Thayer'
p158
aS'The Vilna Shul'
p159
aS'Boston Public Garden '
p160
aS'Meadhall'
p161
aS'Winthrop Park'
p162
aS'Oberon'
p163
aS"Peddock's Island"
p164
aS'St. John the Evangelist Monastery Chapel'
p165
aS'American Academy of Arts and Sciences'
p166
aS'Dorchester Heights National Historic Site'
p167
aS'CambridgeSide Galleria Mall'
p168
aS'Boylston Street '
p169
aS'Sanders Theatre'
p170
aS'The First Church of Christ, Scientist'
p171
aS'Lizard Lounge'
p172
aS'Saint Leonard of Port Maurice'
p173
aS'Grand Circle Gallery'
p174
aS'Stata Center'
p175
aS'Little Brewster Island and Lighthouse'
p176
aS'Piers Park'
p177
aS'Boston African American National Historic Site'
p178
aS'Boston Common Carousel'
p179
aS'Boston Light'
p180
aS'Chinatown'
p181
aS'Franklin Park Zoo'
p182
aS'Berklee College of Music '
p183
aS'John F. Kennedy Park'
p184
aS'Schlesinger Library'
p185
aS'Fort Warren'
p186
aS"Charlie's Kitchen"
p187
aS'African Meeting House'
p188
aS'Paul S. Russell, MD Museum of Medical History and Innovation at Massachusetts General Hospital'
p189
aS"Copp's Hill Burying Ground"
p190
aS'Shiso Kitchen'
p191
aS'Massachusetts Institute of Technology (MIT)'
p192
aS'New England Holocaust Memorial '
p193
aS'Boston Harbor Islands National Recreation Area '
p194
aS'John Harvard Statue'
p195
aS'South Boston'
p196
aS'Harrison Gray Otis House'
p197
aS'MIT Museum'
p198
aS'Central Square Theater'
p199
aS'Museum of the National Center of Afro American Artists'
p200
aS'Nielsen Gallery'
p201
aS'Beacon Street'
p202
aS'Salada Tea Doors'
p203
aS'Union Square'
p204
aS'Paul Revere Mall'
p205
aS'Boston Common '
p206
aS'Harvard University Herbaria'
p207
aS'Movie Theaters (3)'
p208
aS'Irish Heritage Trail'
p209
aS'Boston Athenaeum'
p210
aS'Esplanade Playspace'
p211
aS'Marine Park'
p212
aS'Boston Beer Museum'
p213
a.