(lp0
S'Arlington Street Church, Boston, MA'
p1
aS'Carson Beach, Boston, MA'
p2
aS'Charles Street, Boston, MA'
p3
aS'Axelle Fine Arts Galerie, Boston, MA'
p4
aS'Peabody Museum, Boston, MA'
p5
aS'Ether Dome at Mass General Hospital, Boston, MA'
p6
aS'Out Of Town News, Boston, MA'
p7
aS'Harvard Art Museums, Boston, MA'
p8
aS'Downtown Crossing, Boston, MA'
p9
aS'The Mapparium , Boston, MA'
p10
aS'Boston University Observatory, Boston, MA'
p11
aS'Phoenix Landing, Boston, MA'
p12
aS'Metropolitan Waterworks Museum, Boston, MA'
p13
aS'City Tours (1), Boston, MA'
p14
aS'Bernard Toale Gallery, Boston, MA'
p15
aS'Lord Hobo, Boston, MA'
p16
aS'Vose Galleries of Boston, Boston, MA'
p17
aS'Specialty & Gift Shops (18), Boston, MA'
p18
aS'Crump McCole Seaport Art Gallery, Boston, MA'
p19
aS'The Alchemist, Boston, MA'
p20
aS'Ancient and Honorable Artillery Company Museum, Boston, MA'
p21
aS'Boston Fire Museum, Boston, MA'
p22
aS'Harvard Museum of Natural History , Boston, MA'
p23
aS'Commonwealth Museum, Boston, MA'
p24
aS'Louisburg Square, Boston, MA'
p25
aS'Old City Hall , Boston, MA'
p26
aS'Jeannette Neill Dance Studio, Boston, MA'
p27
aS'Museum of Fine Arts , Boston, MA'
p28
aS'Wine Tours & Tastings (1), Boston, MA'
p29
aS'The Donkey Show, Boston, MA'
p30
aS'Society of Arts and Crafts Gallery, Boston, MA'
p31
aS'Cambridge Common, Boston, MA'
p32
aS'Kayaking & Canoeing (1), Boston, MA'
p33
aS'Dewey Square Parks, Boston, MA'
p34
aS'Old State House , Boston, MA'
p35
aS'Davis Square, Boston, MA'
p36
aS'Cambridge Center Roof Garden, Boston, MA'
p37
aS'Historical & Heritage Tours (4), Boston, MA'
p38
aS"Breed's Hill, Boston, MA"
p39
aS'USS Constitution Museum , Boston, MA'
p40
aS'Norman B. Leventhal Park, Boston, MA'
p41
aS'Kendall Square, Boston, MA'
p42
aS'Charles River, Boston, MA'
p43
aS'Chestnut Hill Reservoir, Boston, MA'
p44
aS'John Hancock Tower, Boston, MA'
p45
aS'Brattle Square, Boston, MA'
p46
aS'Emerald Necklace , Boston, MA'
p47
aS"Boston Children's Museum , Boston, MA"
p48
aS'Boston Irish Famine Memorial, Boston, MA'
p49
aS'Emmanuel Church, Boston, MA'
p50
aS'The SOWA Artists Guild , Boston, MA'
p51
aS'Franklin Park, Boston, MA'
p52
aS'Porter Square, Boston, MA'
p53
aS'Harriet Tubman House, Boston, MA'
p54
aS'The West End Museum, Boston, MA'
p55
aS'John F. Kennedy Presidential Museum & Library, Boston, MA'
p56
aS'Aeronaut Brewing Co., Boston, MA'
p57
aS'Washington Street, Boston, MA'
p58
aS'Park Street Church, Boston, MA'
p59
aS'Old South Meeting House , Boston, MA'
p60
aS'Arnold Arboretum, Boston, MA'
p61
aS'William Hickling Prescott House, Boston, MA'
p62
aS'Shirley-Eustis House, Boston, MA'
p63
aS'Panopticon Gallery, Boston, MA'
p64
aS'The Paul Revere House , Boston, MA'
p65
aS'Statue of Benjamin Franklin, Boston, MA'
p66
aS'Nichols House Museum, Boston, MA'
p67
aS'A.R.T. - American Repertory Theater, Boston, MA'
p68
aS'Boston Nature Center, Boston, MA'
p69
aS'Quincy Market, Boston, MA'
p70
aS'Bunker Hill , Boston, MA'
p71
aS'Frog Pond, Boston, MA'
p72
aS'Statue of Paul Revere, Boston, MA'
p73
aS'Harvard University , Boston, MA'
p74
aS'Bantam Cidery, Boston, MA'
p75
aS'North Point Park, Boston, MA'
p76
aS'Christopher Columbus Waterfront Park , Boston, MA'
p77
aS'Cambridge Antique Market, Boston, MA'
p78
aS"Artisan's Asylum, Boston, MA"
p79
aS'Armenian Heritage Park, Boston, MA'
p80
aS'Massachusetts Historical Society, Boston, MA'
p81
aS'New England Aquarium , Boston, MA'
p82
aS'Entrepreneur Walk of Fame, Boston, MA'
p83
aS'Spas (4), Boston, MA'
p84
aS'Citi Performing Arts Center, Boston, MA'
p85
aS'Gibson House Museum, Boston, MA'
p86
aS'Boston Tea Party Ships & Museum , Boston, MA'
p87
aS'Site of the Boston Massacre , Boston, MA'
p88
aS'Top of the Hub, Boston, MA'
p89
aS'Museum of Science , Boston, MA'
p90
aS'Leonard P. Zakim Bunker Hill Bridge, Boston, MA'
p91
aS'Charles River Bike Path, Boston, MA'
p92
aS'South End, Boston, MA'
p93
aS'Long Wharf, Boston, Boston, MA'
p94
aS'The Castle at Boston University, Boston, MA'
p95
aS'Stoneman Playground, Boston, MA'
p96
aS'Church of the Covenant, Boston, MA'
p97
aS'Jamaica Pond, Boston, MA'
p98
aS'Mystic River Reservation, Boston, MA'
p99
aS'Mt. Auburn Cemetery , Boston, MA'
p100
aS'Rose Fitzgerald Kennedy Greenway Conservancy , Boston, MA'
p101
aS"Paddy's, Boston, MA"
p102
aS'Edward M. Kennedy Institute for the United States Senate, Boston, MA'
p103
aS'Acorn Street, Boston, MA'
p104
aS'Boston Latin School, Boston, MA'
p105
aS'Warren Anatomical Museum, Boston, MA'
p106
aS'Jamaica Plain, Boston, MA'
p107
aS'Memorial Drive, Boston, MA'
p108
aS"Marriott's Custom House, Boston, MA"
p109
aS'Walking Tours (2), Boston, MA'
p110
aS'Forest Hills Cemetery, Boston, MA'
p111
aS'Emerson College, Boston, MA'
p112
aS'Arthur M. Sackler Museum, Boston, MA'
p113
aS'Isabella Stewart Gardner Museum , Boston, MA'
p114
aS'Sports Museum of New England, Boston, MA'
p115
aS"People's Republik, Boston, MA"
p116
aS'Mary Baker Eddy Library, Boston, MA'
p117
aS'Museum of African American History, Boston, MA'
p118
aS'Wheeler Park, Boston, MA'
p119
aS'The Fens, Boston, MA'
p120
aS'Charlestown Navy Yard , Boston, MA'
p121
aS'Boston Public Library, Boston, MA'
p122
aS'Cambridge Multicultural Arts Center, Boston, MA'
p123
aS'Alpha Gallery, Boston, MA'
p124
aS'Fan Pier , Boston, MA'
p125
aS'Cantab Lounge, Boston, MA'
p126
aS'Harvard University Semitic Museum, Boston, MA'
p127
aS'Commonwealth Avenue Mall, Boston, MA'
p128
aS'Charles River Esplanade , Boston, MA'
p129
aS'Massage Institute of New England, Boston, MA'
p130
aS'Inman Square, Boston, MA'
p131
aS'Yoga & Pilates (1), Boston, MA'
p132
aS"Atwood's Tavern, Boston, MA"
p133
aS"Longfellow House Washington's Headquarters National Historic Site, Boston, MA"
p134
aS'Cambridge Public Library, Boston, MA'
p135
aS'Asgard Irish Pub & Restaurant, Boston, MA'
p136
aS'Museum of Bad Art, Boston, MA'
p137
aS'Boat Tours (1), Boston, MA'
p138
aS'Harvard Square, Boston, MA'
p139
aS'Parish of Saint Paul, Boston, MA'
p140
aS"St. Stephen's Roman Catholic Church, Boston, MA"
p141
aS'Fresh Pond Reservation, Boston, MA'
p142
aS'Robert Klein Gallery, Boston, MA'
p143
aS'Cathedral of the Holy Cross, Boston, MA'
p144
aS'The Institute of Contemporary Art , Boston, MA'
p145
aS'Theater & Performances (7), Boston, MA'
p146
aS'Jose Mateo Ballet Theatre, Boston, MA'
p147
aS'Galleries at Thayer, Boston, MA'
p148
aS'The Vilna Shul, Boston, MA'
p149
aS'Boston Public Garden , Boston, MA'
p150
aS'Meadhall, Boston, MA'
p151
aS'Winthrop Park, Boston, MA'
p152
aS'Oberon, Boston, MA'
p153
aS'St. John the Evangelist Monastery Chapel, Boston, MA'
p154
aS'American Academy of Arts and Sciences, Boston, MA'
p155
aS'Dorchester Heights National Historic Site, Boston, MA'
p156
aS'CambridgeSide Galleria Mall, Boston, MA'
p157
aS'Boylston Street , Boston, MA'
p158
aS'Sanders Theatre, Boston, MA'
p159
aS'The First Church of Christ, Scientist, Boston, MA'
p160
aS'Lizard Lounge, Boston, MA'
p161
aS'Saint Leonard of Port Maurice, Boston, MA'
p162
aS'Grand Circle Gallery, Boston, MA'
p163
aS'Stata Center, Boston, MA'
p164
aS'Little Brewster Island and Lighthouse, Boston, MA'
p165
aS'Boston African American National Historic Site, Boston, MA'
p166
aS'Boston Common Carousel, Boston, MA'
p167
aS'Boston Light, Boston, MA'
p168
aS'Chinatown, Boston, MA'
p169
aS'Franklin Park Zoo, Boston, MA'
p170
aS'Berklee College of Music , Boston, MA'
p171
aS'John F. Kennedy Park, Boston, MA'
p172
aS'Schlesinger Library, Boston, MA'
p173
aS'Fort Warren, Boston, MA'
p174
aS"Charlie's Kitchen, Boston, MA"
p175
aS'African Meeting House, Boston, MA'
p176
aS'Paul S. Russell, MD Museum of Medical History and Innovation at Massachusetts General Hospital, Boston, MA'
p177
aS"Copp's Hill Burying Ground, Boston, MA"
p178
aS'Shiso Kitchen, Boston, MA'
p179
aS'Massachusetts Institute of Technology (MIT), Boston, MA'
p180
aS'New England Holocaust Memorial , Boston, MA'
p181
aS'John Harvard Statue, Boston, MA'
p182
aS'South Boston, Boston, MA'
p183
aS'Harrison Gray Otis House, Boston, MA'
p184
aS'MIT Museum, Boston, MA'
p185
aS'Museum of the National Center of Afro American Artists, Boston, MA'
p186
aS'Nielsen Gallery, Boston, MA'
p187
aS'Beacon Street, Boston, MA'
p188
aS'Salada Tea Doors, Boston, MA'
p189
aS'Union Square, Boston, MA'
p190
aS'Paul Revere Mall, Boston, MA'
p191
aS'Boston Common , Boston, MA'
p192
aS'Harvard University Herbaria, Boston, MA'
p193
aS'Movie Theaters (3), Boston, MA'
p194
aS'Irish Heritage Trail, Boston, MA'
p195
aS'Boston Athenaeum, Boston, MA'
p196
aS'Esplanade Playspace, Boston, MA'
p197
aS'Boston Beer Museum, Boston, MA'
p198
a.